; Function Attrs: mustprogress uwtable
define void @_ZN2cv10xobjdetect10WBDetector6createEv(ptr dead_on_unwind noalias writable sret(%"struct.cv::Ptr.38") align 8 %0) local_unnamed_addr #3 align 2 personality ptr @__gxx_personality_v0 {
  %2 = tail call noalias noundef nonnull dereferenceable(136) ptr @_Znwm(i64 noundef 136) #18
  tail call void @llvm.memset.p0.i64(ptr noundef nonnull align 16 dereferenceable(136) %2, i8 0, i64 136, i1 false)
  store ptr getelementptr inbounds inrange(-16, 48) (i8, ptr @_ZTVN2cv10xobjdetect14WBDetectorImplE, i64 16), ptr %2, align 8
  %3 = getelementptr inbounds i8, ptr %2, i64 8
  invoke void @_ZN2cv10xobjdetect9WaldBoostC1Ev(ptr noundef nonnull align 8 dereferenceable(128) %3)
          to label %_ZN2cv10xobjdetect14WBDetectorImplC2Ev.exit unwind label %5

_ZN2cv10xobjdetect14WBDetectorImplC2Ev.exit:      ; preds = %1
  store ptr %2, ptr %0, align 8
  %4 = getelementptr inbounds i8, ptr %0, i64 8
  tail call void @_ZNSt14__shared_countILN9__gnu_cxx12_Lock_policyE2EEC2IPN2cv10xobjdetect14WBDetectorImplEEET_(ptr noundef nonnull align 8 dereferenceable(8) %4, ptr noundef nonnull %2)
  ret void

5:                                                ; preds = %1
  %6 = landingpad { ptr, i32 }
          cleanup
  tail call void @_ZdlPv(ptr noundef nonnull %2) #16
  resume { ptr, i32 } %6
}